; Function Attrs: mustprogress uwtable
define internal void @_ZL28callBack_rescaleGrayLevelMatiPv(i32 %0, ptr nocapture readnone %1) #6 personality ptr @__gxx_personality_v0 {
  %3 = alloca %"class.cv::_InputArray", align 8
  %4 = alloca %"class.cv::_InputOutputArray", align 8
  %5 = tail call noundef nonnull align 8 dereferenceable(8) ptr @_ZStlsISt11char_traitsIcEERSt13basic_ostreamIcT_ES5_PKc(ptr noundef nonnull align 8 dereferenceable(8) @_ZSt4cout, ptr noundef nonnull @.str.55)
  %6 = load i32, ptr @histogramClippingValue, align 4
  %7 = tail call noundef nonnull align 8 dereferenceable(8) ptr @_ZNSolsEi(ptr noundef nonnull align 8 dereferenceable(8) %5, i32 noundef %6)
  %8 = tail call noundef nonnull align 8 dereferenceable(8) ptr @_ZNSolsEPFRSoS_E(ptr noundef nonnull align 8 dereferenceable(8) %7, ptr noundef nonnull @_ZSt4endlIcSt11char_traitsIcEERSt13basic_ostreamIT_T0_ES6_)
  %9 = load i32, ptr @histogramClippingValue, align 4
  %10 = sitofp i32 %9 to double
  %11 = fdiv double %10, 1.000000e+02
  %12 = fptrunc double %11 to float
  tail call fastcc void @_ZL19rescaleGrayLevelMatRKN2cv3MatERS0_f(float noundef %12)
  %13 = getelementptr inbounds i8, ptr %3, i64 16
  store i32 0, ptr %13, align 8
  %14 = getelementptr inbounds i8, ptr %3, i64 20
  store i32 0, ptr %14, align 4
  store i32 16842752, ptr %3, align 8
  %15 = getelementptr inbounds i8, ptr %3, i64 8
  store ptr @imageInputRescaled, ptr %15, align 8
  %16 = getelementptr inbounds i8, ptr %4, i64 8
  %17 = getelementptr inbounds i8, ptr %4, i64 16
  store i64 0, ptr %17, align 8
  store i32 50397184, ptr %4, align 8
  store ptr @imageInputRescaled, ptr %16, align 8
  %18 = tail call noundef nonnull align 8 dereferenceable(24) ptr @_ZN2cv7noArrayEv()
  call void @_ZN2cv9normalizeERKNS_11_InputArrayERKNS_17_InputOutputArrayEddiiS2_(ptr noundef nonnull align 8 dereferenceable(24) %3, ptr noundef nonnull align 8 dereferenceable(24) %4, double noundef 0.000000e+00, double noundef 2.550000e+02, i32 noundef 32, i32 noundef -1, ptr noundef nonnull align 8 dereferenceable(24) %18)
  ret void
}